; Function Attrs: mustprogress nofree norecurse nosync nounwind willreturn memory(read, inaccessiblemem: none) uwtable
define hidden noundef zeroext i1 @_ZNK7datalog14bound_relation7is_fullERKNS_9uint_set2E(ptr nonnull readnone align 8 captures(none) %0, ptr noundef nonnull readonly align 8 captures(none) dereferenceable(16) %1) unnamed_addr #6 align 2 {
  %3 = load ptr, ptr %1, align 8, !tbaa !61
  %4 = icmp eq ptr %3, null
  br i1 %4, label %.loopexit, label %.split.i

.split.i:                                         ; preds = %2
  %5 = getelementptr inbounds i8, ptr %3, i64 -4
  %6 = load i32, ptr %5, align 4, !tbaa !40
  %wide.trip.count.i = zext i32 %6 to i64
  br label %_ZNK6vectorIjLb0EjE4sizeEv.exit.i

_ZNK6vectorIjLb0EjE4sizeEv.exit.i:                ; preds = %7, %.split.i
  %indvars.iv.i = phi i64 [ %indvars.iv.next.i, %7 ], [ 0, %.split.i ]
  %exitcond.not.i = icmp eq i64 %indvars.iv.i, %wide.trip.count.i
  br i1 %exitcond.not.i, label %.loopexit, label %7

7:                                                ; preds = %_ZNK6vectorIjLb0EjE4sizeEv.exit.i
  %8 = getelementptr inbounds nuw i32, ptr %3, i64 %indvars.iv.i
  %9 = load i32, ptr %8, align 4, !tbaa !40
  %.not.i = icmp eq i32 %9, 0
  %indvars.iv.next.i = add nuw nsw i64 %indvars.iv.i, 1
  br i1 %.not.i, label %_ZNK6vectorIjLb0EjE4sizeEv.exit.i, label %_ZNK8uint_set5emptyEv.exit, !llvm.loop !150

.loopexit:                                        ; preds = %_ZNK6vectorIjLb0EjE4sizeEv.exit.i, %2
  %10 = getelementptr inbounds nuw i8, ptr %1, i64 8
  %11 = load ptr, ptr %10, align 8, !tbaa !61
  %12 = icmp eq ptr %11, null
  br i1 %12, label %_ZNK8uint_set5emptyEv.exit, label %.split.i2

.split.i2:                                        ; preds = %.loopexit
  %13 = getelementptr inbounds i8, ptr %11, i64 -4
  %14 = load i32, ptr %13, align 4, !tbaa !40
  %wide.trip.count.i3 = zext i32 %14 to i64
  br label %_ZNK6vectorIjLb0EjE4sizeEv.exit.i4

_ZNK6vectorIjLb0EjE4sizeEv.exit.i4:               ; preds = %15, %.split.i2
  %indvars.iv.i5 = phi i64 [ %indvars.iv.next.i8, %15 ], [ 0, %.split.i2 ]
  %exitcond.not.i6 = icmp eq i64 %indvars.iv.i5, %wide.trip.count.i3
  br i1 %exitcond.not.i6, label %_ZNK8uint_set5emptyEv.exit, label %15

15:                                               ; preds = %_ZNK6vectorIjLb0EjE4sizeEv.exit.i4
  %16 = getelementptr inbounds nuw i32, ptr %11, i64 %indvars.iv.i5
  %17 = load i32, ptr %16, align 4, !tbaa !40
  %.not.i7 = icmp eq i32 %17, 0
  %indvars.iv.next.i8 = add nuw nsw i64 %indvars.iv.i5, 1
  br i1 %.not.i7, label %_ZNK6vectorIjLb0EjE4sizeEv.exit.i4, label %_ZNK8uint_set5emptyEv.exit, !llvm.loop !150

_ZNK8uint_set5emptyEv.exit:                       ; preds = %7, %15, %_ZNK6vectorIjLb0EjE4sizeEv.exit.i4, %.loopexit
  %18 = phi i1 [ true, %.loopexit ], [ %exitcond.not.i6, %_ZNK6vectorIjLb0EjE4sizeEv.exit.i4 ], [ %exitcond.not.i6, %15 ], [ false, %7 ]
  ret i1 %18
}